target datalayout = "e-m:e-p270:32:32-p271:32:32-p272:64:64-i64:64-i128:128-f80:128-n8:16:32:64-S128"
target triple = "x86_64-pc-linux-gnu"

%struct._mcaststream_tapinfo = type { ptr, ptr, ptr, ptr, i32, ptr, i8 }

@.str = private unnamed_addr constant [4 x i8] c"udp\00", align 1

; Function Attrs: null_pointer_is_valid sspstrong uwtable
define hidden ptr @register_tap_listener_mcast_stream(ptr noundef %0) #0 {
  %2 = alloca ptr, align 8
  %3 = alloca ptr, align 8
  %4 = alloca ptr, align 8
  %5 = alloca i32, align 4
  store ptr %0, ptr %3, align 8
  call void @llvm.lifetime.start.p0(i64 8, ptr %4) #12
  %6 = load ptr, ptr %3, align 8
  %7 = icmp ne ptr %6, null
  br i1 %7, label %9, label %8

8:                                                ; preds = %1
  store ptr null, ptr %2, align 8
  store i32 1, ptr %5, align 4
  br label %25

9:                                                ; preds = %1
  %10 = load ptr, ptr %3, align 8
  %11 = getelementptr inbounds nuw %struct._mcaststream_tapinfo, ptr %10, i32 0, i32 6
  %12 = load i8, ptr %11, align 8, !range !10, !noundef !11
  %13 = trunc i8 %12 to i1
  br i1 %13, label %14, label %15

14:                                               ; preds = %9
  store ptr null, ptr %2, align 8
  store i32 1, ptr %5, align 4
  br label %25

15:                                               ; preds = %9
  %16 = load ptr, ptr %3, align 8
  %17 = call ptr @register_tap_listener(ptr noundef @.str, ptr noundef %16, ptr noundef null, i32 noundef 0, ptr noundef @mcaststream_reset_cb, ptr noundef @mcaststream_packet, ptr noundef @mcaststream_draw, ptr noundef null)
  store ptr %17, ptr %4, align 8
  %18 = load ptr, ptr %4, align 8
  %19 = icmp eq ptr null, %18
  br i1 %19, label %20, label %23

20:                                               ; preds = %15
  %21 = load ptr, ptr %3, align 8
  %22 = getelementptr inbounds nuw %struct._mcaststream_tapinfo, ptr %21, i32 0, i32 6
  store i8 1, ptr %22, align 8
  br label %23

23:                                               ; preds = %20, %15
  %24 = load ptr, ptr %4, align 8
  store ptr %24, ptr %2, align 8
  store i32 1, ptr %5, align 4
  br label %25

25:                                               ; preds = %23, %14, %8
  call void @llvm.lifetime.end.p0(i64 8, ptr %4) #12
  %26 = load ptr, ptr %2, align 8
  ret ptr %26
}