; Function Attrs: null_pointer_is_valid sspstrong uwtable
define hidden ptr @register_tap_listener_mcast_stream(ptr noundef %0) local_unnamed_addr #0 {
  %.not = icmp eq ptr %0, null
  br i1 %.not, label %10, label %2

2:                                                ; preds = %1
  %3 = getelementptr inbounds nuw i8, ptr %0, i64 48
  %4 = load i8, ptr %3, align 8, !range !10, !noundef !11
  %5 = trunc nuw i8 %4 to i1
  br i1 %5, label %10, label %6

6:                                                ; preds = %2
  %7 = tail call ptr @register_tap_listener(ptr noundef nonnull @.str, ptr noundef nonnull %0, ptr noundef null, i32 noundef 0, ptr noundef nonnull @mcaststream_reset_cb, ptr noundef nonnull @mcaststream_packet, ptr noundef nonnull @mcaststream_draw, ptr noundef null)
  %8 = icmp eq ptr %7, null
  br i1 %8, label %9, label %10

9:                                                ; preds = %6
  store i8 1, ptr %3, align 8
  br label %10

10:                                               ; preds = %6, %9, %2, %1
  %.0 = phi ptr [ null, %1 ], [ null, %2 ], [ null, %9 ], [ %7, %6 ]
  ret ptr %.0
}